; Function Attrs: mustprogress nofree norecurse nounwind willreturn uwtable
define void @_ZNK5arrow3ipc13StreamDecoder6schemaEv(ptr noalias nocapture writeonly sret(%"class.std::shared_ptr") align 8 %agg.result, ptr nocapture noundef nonnull readonly align 8 dereferenceable(16) %this) local_unnamed_addr #7 align 2 personality ptr @__gxx_personality_v0 {
entry:
  %impl_ = getelementptr inbounds i8, ptr %this, i64 8
  %0 = load ptr, ptr %impl_, align 8
  tail call void @llvm.experimental.noalias.scope.decl(metadata !339)
  %filtered_schema_.i = getelementptr inbounds i8, ptr %0, i64 184
  %1 = load <2 x ptr>, ptr %filtered_schema_.i, align 8, !noalias !339
  store <2 x ptr> %1, ptr %agg.result, align 8, !alias.scope !339
  %2 = extractelement <2 x ptr> %1, i64 1
  %cmp.not.i.i.i.i = icmp eq ptr %2, null
  br i1 %cmp.not.i.i.i.i, label %_ZNK5arrow3ipc21StreamDecoderInternal6schemaEv.exit, label %if.then.i.i.i.i

if.then.i.i.i.i:                                  ; preds = %entry
  %_M_use_count.i.i.i.i.i = getelementptr inbounds i8, ptr %2, i64 8
  %3 = load i8, ptr @__libc_single_threaded, align 1, !noalias !339
  %tobool.i.not.i.i.i.i.i = icmp eq i8 %3, 0
  br i1 %tobool.i.not.i.i.i.i.i, label %if.else.i.i.i.i.i.i, label %if.then.i.i.i.i.i.i

if.then.i.i.i.i.i.i:                              ; preds = %if.then.i.i.i.i
  %4 = load i32, ptr %_M_use_count.i.i.i.i.i, align 4, !noalias !339
  %add.i.i.i.i.i.i = add nsw i32 %4, 1
  store i32 %add.i.i.i.i.i.i, ptr %_M_use_count.i.i.i.i.i, align 4, !noalias !339
  br label %_ZNK5arrow3ipc21StreamDecoderInternal6schemaEv.exit

if.else.i.i.i.i.i.i:                              ; preds = %if.then.i.i.i.i
  %5 = atomicrmw volatile add ptr %_M_use_count.i.i.i.i.i, i32 1 acq_rel, align 4, !noalias !339
  br label %_ZNK5arrow3ipc21StreamDecoderInternal6schemaEv.exit

_ZNK5arrow3ipc21StreamDecoderInternal6schemaEv.exit: ; preds = %entry, %if.then.i.i.i.i.i.i, %if.else.i.i.i.i.i.i
  ret void
}